; Function Attrs: mustprogress nofree norecurse nosync nounwind willreturn memory(argmem: read) uwtable
define dso_local { ptr, i64 } @_ZN4node22CustomBufferJSListener13OnStreamAllocEm(ptr nocapture noundef nonnull readonly align 8 dereferenceable(40) %this, i64 %suggested_size) unnamed_addr #10 align 2 {
entry:
  %buffer_ = getelementptr inbounds i8, ptr %this, i64 24
  %retval.sroa.0.0.copyload = load ptr, ptr %buffer_, align 8
  %retval.sroa.2.0.buffer_.sroa_idx = getelementptr inbounds i8, ptr %this, i64 32
  %retval.sroa.2.0.copyload = load i64, ptr %retval.sroa.2.0.buffer_.sroa_idx, align 8
  %.fca.0.insert = insertvalue { ptr, i64 } poison, ptr %retval.sroa.0.0.copyload, 0
  %.fca.1.insert = insertvalue { ptr, i64 } %.fca.0.insert, i64 %retval.sroa.2.0.copyload, 1
  ret { ptr, i64 } %.fca.1.insert
}